target datalayout = "e-m:e-p270:32:32-p271:32:32-p272:64:64-i64:64-i128:128-f80:128-n8:16:32:64-S128"
target triple = "x86_64-pc-linux-gnu"

%struct.JNINativeInterface_ = type { ptr, ptr, ptr, ptr, ptr, ptr, ptr, ptr, ptr, ptr, ptr, ptr, ptr, ptr, ptr, ptr, ptr, ptr, ptr, ptr, ptr, ptr, ptr, ptr, ptr, ptr, ptr, ptr, ptr, ptr, ptr, ptr, ptr, ptr, ptr, ptr, ptr, ptr, ptr, ptr, ptr, ptr, ptr, ptr, ptr, ptr, ptr, ptr, ptr, ptr, ptr, ptr, ptr, ptr, ptr, ptr, ptr, ptr, ptr, ptr, ptr, ptr, ptr, ptr, ptr, ptr, ptr, ptr, ptr, ptr, ptr, ptr, ptr, ptr, ptr, ptr, ptr, ptr, ptr, ptr, ptr, ptr, ptr, ptr, ptr, ptr, ptr, ptr, ptr, ptr, ptr, ptr, ptr, ptr, ptr, ptr, ptr, ptr, ptr, ptr, ptr, ptr, ptr, ptr, ptr, ptr, ptr, ptr, ptr, ptr, ptr, ptr, ptr, ptr, ptr, ptr, ptr, ptr, ptr, ptr, ptr, ptr, ptr, ptr, ptr, ptr, ptr, ptr, ptr, ptr, ptr, ptr, ptr, ptr, ptr, ptr, ptr, ptr, ptr, ptr, ptr, ptr, ptr, ptr, ptr, ptr, ptr, ptr, ptr, ptr, ptr, ptr, ptr, ptr, ptr, ptr, ptr, ptr, ptr, ptr, ptr, ptr, ptr, ptr, ptr, ptr, ptr, ptr, ptr, ptr, ptr, ptr, ptr, ptr, ptr, ptr, ptr, ptr, ptr, ptr, ptr, ptr, ptr, ptr, ptr, ptr, ptr, ptr, ptr, ptr, ptr, ptr, ptr, ptr, ptr, ptr, ptr, ptr, ptr, ptr, ptr, ptr, ptr, ptr, ptr, ptr, ptr, ptr, ptr, ptr, ptr, ptr, ptr, ptr, ptr, ptr, ptr, ptr, ptr, ptr, ptr, ptr, ptr, ptr, ptr, ptr, ptr, ptr, ptr, ptr, ptr, ptr, ptr, ptr, ptr }

@ia6_holder6ID = external global ptr, align 8
@ia6_ipaddressID = external global ptr, align 8

; Function Attrs: nounwind uwtable
define hidden zeroext i8 @setInet6Address_ipaddress(ptr noundef %0, ptr noundef %1, ptr noundef %2) #0 {
  %4 = alloca i8, align 1
  %5 = alloca ptr, align 8
  %6 = alloca ptr, align 8
  %7 = alloca ptr, align 8
  %8 = alloca ptr, align 8
  %9 = alloca ptr, align 8
  store ptr %0, ptr %5, align 8
  store ptr %1, ptr %6, align 8
  store ptr %2, ptr %7, align 8
  %10 = load ptr, ptr %5, align 8
  %11 = load ptr, ptr %10, align 8
  %12 = getelementptr inbounds %struct.JNINativeInterface_, ptr %11, i32 0, i32 95
  %13 = load ptr, ptr %12, align 8
  %14 = load ptr, ptr %5, align 8
  %15 = load ptr, ptr %6, align 8
  %16 = load ptr, ptr @ia6_holder6ID, align 8
  %17 = call ptr %13(ptr noundef %14, ptr noundef %15, ptr noundef %16)
  store ptr %17, ptr %8, align 8
  br label %18

18:                                               ; preds = %3
  %19 = load ptr, ptr %8, align 8
  %20 = icmp eq ptr %19, null
  br i1 %20, label %21, label %22

21:                                               ; preds = %18
  store i8 0, ptr %4, align 1
  br label %75

22:                                               ; preds = %18
  br label %23

23:                                               ; preds = %22
  %24 = load ptr, ptr %5, align 8
  %25 = load ptr, ptr %24, align 8
  %26 = getelementptr inbounds %struct.JNINativeInterface_, ptr %25, i32 0, i32 95
  %27 = load ptr, ptr %26, align 8
  %28 = load ptr, ptr %5, align 8
  %29 = load ptr, ptr %8, align 8
  %30 = load ptr, ptr @ia6_ipaddressID, align 8
  %31 = call ptr %27(ptr noundef %28, ptr noundef %29, ptr noundef %30)
  store ptr %31, ptr %9, align 8
  %32 = load ptr, ptr %9, align 8
  %33 = icmp eq ptr %32, null
  br i1 %33, label %34, label %55

34:                                               ; preds = %23
  %35 = load ptr, ptr %5, align 8
  %36 = load ptr, ptr %35, align 8
  %37 = getelementptr inbounds %struct.JNINativeInterface_, ptr %36, i32 0, i32 176
  %38 = load ptr, ptr %37, align 8
  %39 = load ptr, ptr %5, align 8
  %40 = call ptr %38(ptr noundef %39, i32 noundef 16)
  store ptr %40, ptr %9, align 8
  br label %41

41:                                               ; preds = %34
  %42 = load ptr, ptr %9, align 8
  %43 = icmp eq ptr %42, null
  br i1 %43, label %44, label %45

44:                                               ; preds = %41
  store i8 0, ptr %4, align 1
  br label %75

45:                                               ; preds = %41
  br label %46

46:                                               ; preds = %45
  %47 = load ptr, ptr %5, align 8
  %48 = load ptr, ptr %47, align 8
  %49 = getelementptr inbounds %struct.JNINativeInterface_, ptr %48, i32 0, i32 104
  %50 = load ptr, ptr %49, align 8
  %51 = load ptr, ptr %5, align 8
  %52 = load ptr, ptr %8, align 8
  %53 = load ptr, ptr @ia6_ipaddressID, align 8
  %54 = load ptr, ptr %9, align 8
  call void %50(ptr noundef %51, ptr noundef %52, ptr noundef %53, ptr noundef %54)
  br label %55

55:                                               ; preds = %46, %23
  %56 = load ptr, ptr %5, align 8
  %57 = load ptr, ptr %56, align 8
  %58 = getelementptr inbounds %struct.JNINativeInterface_, ptr %57, i32 0, i32 208
  %59 = load ptr, ptr %58, align 8
  %60 = load ptr, ptr %5, align 8
  %61 = load ptr, ptr %9, align 8
  %62 = load ptr, ptr %7, align 8
  call void %59(ptr noundef %60, ptr noundef %61, i32 noundef 0, i32 noundef 16, ptr noundef %62)
  %63 = load ptr, ptr %5, align 8
  %64 = load ptr, ptr %63, align 8
  %65 = getelementptr inbounds %struct.JNINativeInterface_, ptr %64, i32 0, i32 23
  %66 = load ptr, ptr %65, align 8
  %67 = load ptr, ptr %5, align 8
  %68 = load ptr, ptr %9, align 8
  call void %66(ptr noundef %67, ptr noundef %68)
  %69 = load ptr, ptr %5, align 8
  %70 = load ptr, ptr %69, align 8
  %71 = getelementptr inbounds %struct.JNINativeInterface_, ptr %70, i32 0, i32 23
  %72 = load ptr, ptr %71, align 8
  %73 = load ptr, ptr %5, align 8
  %74 = load ptr, ptr %8, align 8
  call void %72(ptr noundef %73, ptr noundef %74)
  store i8 1, ptr %4, align 1
  br label %75

75:                                               ; preds = %55, %44, %21
  %76 = load i8, ptr %4, align 1
  ret i8 %76
}