; Function Attrs: nounwind uwtable
define hidden zeroext range(i8 0, 2) i8 @setInet6Address_ipaddress(ptr noundef %0, ptr noundef %1, ptr noundef %2) local_unnamed_addr #1 {
  %4 = load ptr, ptr %0, align 8
  %5 = getelementptr inbounds i8, ptr %4, i64 760
  %6 = load ptr, ptr %5, align 8
  %7 = load ptr, ptr @ia6_holder6ID, align 8
  %8 = tail call ptr %6(ptr noundef nonnull %0, ptr noundef %1, ptr noundef %7) #7
  %9 = icmp eq ptr %8, null
  br i1 %9, label %38, label %10

10:                                               ; preds = %3
  %11 = load ptr, ptr %0, align 8
  %12 = getelementptr inbounds i8, ptr %11, i64 760
  %13 = load ptr, ptr %12, align 8
  %14 = load ptr, ptr @ia6_ipaddressID, align 8
  %15 = tail call ptr %13(ptr noundef nonnull %0, ptr noundef nonnull %8, ptr noundef %14) #7
  %16 = icmp eq ptr %15, null
  br i1 %16, label %17, label %28

17:                                               ; preds = %10
  %18 = load ptr, ptr %0, align 8
  %19 = getelementptr inbounds i8, ptr %18, i64 1408
  %20 = load ptr, ptr %19, align 8
  %21 = tail call ptr %20(ptr noundef nonnull %0, i32 noundef 16) #7
  %22 = icmp eq ptr %21, null
  br i1 %22, label %38, label %23

23:                                               ; preds = %17
  %24 = load ptr, ptr %0, align 8
  %25 = getelementptr inbounds i8, ptr %24, i64 832
  %26 = load ptr, ptr %25, align 8
  %27 = load ptr, ptr @ia6_ipaddressID, align 8
  tail call void %26(ptr noundef nonnull %0, ptr noundef nonnull %8, ptr noundef %27, ptr noundef nonnull %21) #7
  br label %28

28:                                               ; preds = %23, %10
  %.0 = phi ptr [ %21, %23 ], [ %15, %10 ]
  %29 = load ptr, ptr %0, align 8
  %30 = getelementptr inbounds i8, ptr %29, i64 1664
  %31 = load ptr, ptr %30, align 8
  tail call void %31(ptr noundef nonnull %0, ptr noundef nonnull %.0, i32 noundef 0, i32 noundef 16, ptr noundef %2) #7
  %32 = load ptr, ptr %0, align 8
  %33 = getelementptr inbounds i8, ptr %32, i64 184
  %34 = load ptr, ptr %33, align 8
  tail call void %34(ptr noundef nonnull %0, ptr noundef nonnull %.0) #7
  %35 = load ptr, ptr %0, align 8
  %36 = getelementptr inbounds i8, ptr %35, i64 184
  %37 = load ptr, ptr %36, align 8
  tail call void %37(ptr noundef nonnull %0, ptr noundef nonnull %8) #7
  br label %38

38:                                               ; preds = %17, %3, %28
  %.025 = phi i8 [ 1, %28 ], [ 0, %3 ], [ 0, %17 ]
  ret i8 %.025
}